; Function Attrs: mustprogress uwtable
define void @_ZN3gmx19VirtualSitesHandlerC2ERK10gmx_mtop_tP12gmx_domdec_t7PbcTypeNS_8ArrayRefIKNS_17RangePartitioningEEE(ptr noundef nonnull writeonly align 8 captures(none) dereferenceable(8) %0, ptr noundef nonnull align 8 dereferenceable(768) %1, ptr noundef %2, i32 noundef %3, ptr %4, ptr %5) unnamed_addr #8 align 2 personality ptr @__gxx_personality_v0 {
  %7 = tail call noalias noundef nonnull dereferenceable(112) ptr @_Znwm(i64 noundef 112) #29
  invoke void @_ZN3gmx19VirtualSitesHandler4ImplC1ERK10gmx_mtop_tP12gmx_domdec_t7PbcTypeNS_8ArrayRefIKNS_17RangePartitioningEEE(ptr noundef nonnull align 8 dereferenceable(112) %7, ptr noundef nonnull align 8 dereferenceable(768) %1, ptr noundef %2, i32 noundef %3, ptr %4, ptr %5)
          to label %8 unwind label %9

8:                                                ; preds = %6
  store ptr %7, ptr %0, align 8, !tbaa !4
  ret void

9:                                                ; preds = %6
  %10 = landingpad { ptr, i32 }
          cleanup
  tail call void @_ZdlPvm(ptr noundef nonnull %7, i64 noundef 112) #26
  resume { ptr, i32 } %10
}